
test:     file format elf64-x86-64


Disassembly of section .init:

0000000000400358 <_init>:
  400358:	48 83 ec 08          	sub    rsp,0x8
  40035c:	e8 5b 00 00 00       	call   4003bc <call_gmon_start>
  400361:	e8 ea 00 00 00       	call   400450 <frame_dummy>
  400366:	e8 d5 01 00 00       	call   400540 <__do_global_ctors_aux>
  40036b:	48 83 c4 08          	add    rsp,0x8
  40036f:	c3                   	ret    

Disassembly of section .plt:

0000000000400370 <__libc_start_main@plt-0x10>:
  400370:	ff 35 92 04 20 00    	push   QWORD PTR [rip+0x200492]        # 600808 <_GLOBAL_OFFSET_TABLE_+0x8>
  400376:	ff 25 94 04 20 00    	jmp    QWORD PTR [rip+0x200494]        # 600810 <_GLOBAL_OFFSET_TABLE_+0x10>
  40037c:	0f 1f 40 00          	nop    DWORD PTR [rax+0x0]

0000000000400380 <__libc_start_main@plt>:
  400380:	ff 25 92 04 20 00    	jmp    QWORD PTR [rip+0x200492]        # 600818 <_GLOBAL_OFFSET_TABLE_+0x18>
  400386:	68 00 00 00 00       	push   0x0
  40038b:	e9 e0 ff ff ff       	jmp    400370 <_init+0x18>

Disassembly of section .text:

0000000000400390 <_start>:
  400390:	31 ed                	xor    ebp,ebp
  400392:	49 89 d1             	mov    r9,rdx
  400395:	5e                   	pop    rsi
  400396:	48 89 e2             	mov    rdx,rsp
  400399:	48 83 e4 f0          	and    rsp,0xfffffffffffffff0
  40039d:	50                   	push   rax
  40039e:	54                   	push   rsp
  40039f:	49 c7 c0 a0 04 40 00 	mov    r8,0x4004a0
  4003a6:	48 c7 c1 b0 04 40 00 	mov    rcx,0x4004b0
  4003ad:	48 c7 c7 74 04 40 00 	mov    rdi,0x400474
  4003b4:	e8 c7 ff ff ff       	call   400380 <__libc_start_main@plt>
  4003b9:	f4                   	hlt    
  4003ba:	90                   	nop
  4003bb:	90                   	nop

00000000004003bc <call_gmon_start>:
  4003bc:	48 83 ec 08          	sub    rsp,0x8
  4003c0:	48 8b 05 31 04 20 00 	mov    rax,QWORD PTR [rip+0x200431]        # 6007f8 <_DYNAMIC+0x190>
  4003c7:	48 85 c0             	test   rax,rax
  4003ca:	74 02                	je     4003ce <call_gmon_start+0x12>
  4003cc:	ff d0                	call   rax
  4003ce:	48 83 c4 08          	add    rsp,0x8
  4003d2:	c3                   	ret    
  4003d3:	90                   	nop
  4003d4:	90                   	nop
  4003d5:	90                   	nop
  4003d6:	90                   	nop
  4003d7:	90                   	nop
  4003d8:	90                   	nop
  4003d9:	90                   	nop
  4003da:	90                   	nop
  4003db:	90                   	nop
  4003dc:	90                   	nop
  4003dd:	90                   	nop
  4003de:	90                   	nop
  4003df:	90                   	nop

00000000004003e0 <__do_global_dtors_aux>:
  4003e0:	55                   	push   rbp
  4003e1:	48 89 e5             	mov    rbp,rsp
  4003e4:	53                   	push   rbx
  4003e5:	48 83 ec 08          	sub    rsp,0x8
  4003e9:	80 3d 38 04 20 00 00 	cmp    BYTE PTR [rip+0x200438],0x0        # 600828 <completed.6349>
  4003f0:	75 4b                	jne    40043d <__do_global_dtors_aux+0x5d>
  4003f2:	bb 58 06 60 00       	mov    ebx,0x600658
  4003f7:	48 8b 05 32 04 20 00 	mov    rax,QWORD PTR [rip+0x200432]        # 600830 <dtor_idx.6351>
  4003fe:	48 81 eb 50 06 60 00 	sub    rbx,0x600650
  400405:	48 c1 fb 03          	sar    rbx,0x3
  400409:	48 83 eb 01          	sub    rbx,0x1
  40040d:	48 39 d8             	cmp    rax,rbx
  400410:	73 24                	jae    400436 <__do_global_dtors_aux+0x56>
  400412:	66 0f 1f 44 00 00    	nop    WORD PTR [rax+rax*1+0x0]
  400418:	48 83 c0 01          	add    rax,0x1
  40041c:	48 89 05 0d 04 20 00 	mov    QWORD PTR [rip+0x20040d],rax        # 600830 <dtor_idx.6351>
  400423:	ff 14 c5 50 06 60 00 	call   QWORD PTR [rax*8+0x600650]
  40042a:	48 8b 05 ff 03 20 00 	mov    rax,QWORD PTR [rip+0x2003ff]        # 600830 <dtor_idx.6351>
  400431:	48 39 d8             	cmp    rax,rbx
  400434:	72 e2                	jb     400418 <__do_global_dtors_aux+0x38>
  400436:	c6 05 eb 03 20 00 01 	mov    BYTE PTR [rip+0x2003eb],0x1        # 600828 <completed.6349>
  40043d:	48 83 c4 08          	add    rsp,0x8
  400441:	5b                   	pop    rbx
  400442:	c9                   	leave  
  400443:	c3                   	ret    
  400444:	66 66 66 2e 0f 1f 84 	data32 data32 nop WORD PTR cs:[rax+rax*1+0x0]
  40044b:	00 00 00 00 00 

0000000000400450 <frame_dummy>:
  400450:	48 83 3d 08 02 20 00 	cmp    QWORD PTR [rip+0x200208],0x0        # 600660 <__JCR_END__>
  400457:	00 
  400458:	55                   	push   rbp
  400459:	48 89 e5             	mov    rbp,rsp
  40045c:	74 12                	je     400470 <frame_dummy+0x20>
  40045e:	b8 00 00 00 00       	mov    eax,0x0
  400463:	48 85 c0             	test   rax,rax
  400466:	74 08                	je     400470 <frame_dummy+0x20>
  400468:	bf 60 06 60 00       	mov    edi,0x600660
  40046d:	c9                   	leave  
  40046e:	ff e0                	jmp    rax
  400470:	c9                   	leave  
  400471:	c3                   	ret    
  400472:	90                   	nop
  400473:	90                   	nop

0000000000400474 <main>:
  400474:	55                   	push   rbp
  400475:	48 89 e5             	mov    rbp,rsp
  400478:	c7 45 f8 00 00 00 00 	mov    DWORD PTR [rbp-0x8],0x0
  40047f:	c6 45 ff 3e          	mov    BYTE PTR [rbp-0x1],0x3e
  400483:	80 7d ff 74          	cmp    BYTE PTR [rbp-0x1],0x74
  400487:	74 0c                	je     400495 <main+0x21>
  400489:	80 7d ff 6f          	cmp    BYTE PTR [rbp-0x1],0x6f
  40048d:	74 06                	je     400495 <main+0x21>
  40048f:	80 7d ff 3e          	cmp    BYTE PTR [rbp-0x1],0x3e
  400493:	75 04                	jne    400499 <main+0x25>
  400495:	83 45 f8 01          	add    DWORD PTR [rbp-0x8],0x1
  400499:	b8 00 00 00 00       	mov    eax,0x0
  40049e:	c9                   	leave  
  40049f:	c3                   	ret    

00000000004004a0 <__libc_csu_fini>:
  4004a0:	f3 c3                	repz ret 
  4004a2:	66 66 66 66 66 2e 0f 	data32 data32 data32 data32 nop WORD PTR cs:[rax+rax*1+0x0]
  4004a9:	1f 84 00 00 00 00 00 

00000000004004b0 <__libc_csu_init>:
  4004b0:	48 89 6c 24 d8       	mov    QWORD PTR [rsp-0x28],rbp
  4004b5:	4c 89 64 24 e0       	mov    QWORD PTR [rsp-0x20],r12
  4004ba:	48 8d 2d 7b 01 20 00 	lea    rbp,[rip+0x20017b]        # 60063c <__init_array_end>
  4004c1:	4c 8d 25 74 01 20 00 	lea    r12,[rip+0x200174]        # 60063c <__init_array_end>
  4004c8:	4c 89 6c 24 e8       	mov    QWORD PTR [rsp-0x18],r13
  4004cd:	4c 89 74 24 f0       	mov    QWORD PTR [rsp-0x10],r14
  4004d2:	4c 89 7c 24 f8       	mov    QWORD PTR [rsp-0x8],r15
  4004d7:	48 89 5c 24 d0       	mov    QWORD PTR [rsp-0x30],rbx
  4004dc:	48 83 ec 38          	sub    rsp,0x38
  4004e0:	4c 29 e5             	sub    rbp,r12
  4004e3:	41 89 fd             	mov    r13d,edi
  4004e6:	49 89 f6             	mov    r14,rsi
  4004e9:	48 c1 fd 03          	sar    rbp,0x3
  4004ed:	49 89 d7             	mov    r15,rdx
  4004f0:	e8 63 fe ff ff       	call   400358 <_init>
  4004f5:	48 85 ed             	test   rbp,rbp
  4004f8:	74 1c                	je     400516 <__libc_csu_init+0x66>
  4004fa:	31 db                	xor    ebx,ebx
  4004fc:	0f 1f 40 00          	nop    DWORD PTR [rax+0x0]
  400500:	4c 89 fa             	mov    rdx,r15
  400503:	4c 89 f6             	mov    rsi,r14
  400506:	44 89 ef             	mov    edi,r13d
  400509:	41 ff 14 dc          	call   QWORD PTR [r12+rbx*8]
  40050d:	48 83 c3 01          	add    rbx,0x1
  400511:	48 39 eb             	cmp    rbx,rbp
  400514:	72 ea                	jb     400500 <__libc_csu_init+0x50>
  400516:	48 8b 5c 24 08       	mov    rbx,QWORD PTR [rsp+0x8]
  40051b:	48 8b 6c 24 10       	mov    rbp,QWORD PTR [rsp+0x10]
  400520:	4c 8b 64 24 18       	mov    r12,QWORD PTR [rsp+0x18]
  400525:	4c 8b 6c 24 20       	mov    r13,QWORD PTR [rsp+0x20]
  40052a:	4c 8b 74 24 28       	mov    r14,QWORD PTR [rsp+0x28]
  40052f:	4c 8b 7c 24 30       	mov    r15,QWORD PTR [rsp+0x30]
  400534:	48 83 c4 38          	add    rsp,0x38
  400538:	c3                   	ret    
  400539:	90                   	nop
  40053a:	90                   	nop
  40053b:	90                   	nop
  40053c:	90                   	nop
  40053d:	90                   	nop
  40053e:	90                   	nop
  40053f:	90                   	nop

0000000000400540 <__do_global_ctors_aux>:
  400540:	55                   	push   rbp
  400541:	48 89 e5             	mov    rbp,rsp
  400544:	53                   	push   rbx
  400545:	48 83 ec 08          	sub    rsp,0x8
  400549:	48 8b 05 f0 00 20 00 	mov    rax,QWORD PTR [rip+0x2000f0]        # 600640 <__CTOR_LIST__>
  400550:	48 83 f8 ff          	cmp    rax,0xffffffffffffffff
  400554:	74 19                	je     40056f <__do_global_ctors_aux+0x2f>
  400556:	bb 40 06 60 00       	mov    ebx,0x600640
  40055b:	0f 1f 44 00 00       	nop    DWORD PTR [rax+rax*1+0x0]
  400560:	48 83 eb 08          	sub    rbx,0x8
  400564:	ff d0                	call   rax
  400566:	48 8b 03             	mov    rax,QWORD PTR [rbx]
  400569:	48 83 f8 ff          	cmp    rax,0xffffffffffffffff
  40056d:	75 f1                	jne    400560 <__do_global_ctors_aux+0x20>
  40056f:	48 83 c4 08          	add    rsp,0x8
  400573:	5b                   	pop    rbx
  400574:	c9                   	leave  
  400575:	c3                   	ret    
  400576:	90                   	nop
  400577:	90                   	nop

Disassembly of section .fini:

0000000000400578 <_fini>:
  400578:	48 83 ec 08          	sub    rsp,0x8
  40057c:	e8 5f fe ff ff       	call   4003e0 <__do_global_dtors_aux>
  400581:	48 83 c4 08          	add    rsp,0x8
  400585:	c3                   	ret    
